target datalayout = "e-m:e-p270:32:32-p271:32:32-p272:64:64-i64:64-i128:128-f80:128-n8:16:32:64-S128"
target triple = "x86_64-pc-linux-gnu"

%struct._zend_refcounted_h = type { i32, %union.anon }
%union.anon = type { i32 }
%struct._zend_string = type { %struct._zend_refcounted_h, i64, i64, [1 x i8] }

; Function Attrs: nounwind uwtable
define internal zeroext i1 @php_password_bcrypt_verify(ptr noundef %0, ptr noundef %1) #0 {
  %3 = alloca i32, align 4
  %4 = alloca i32, align 4
  %5 = alloca i32, align 4
  %6 = alloca i32, align 4
  %7 = alloca ptr, align 8
  %8 = alloca ptr, align 8
  %9 = alloca i1, align 1
  %10 = alloca ptr, align 8
  %11 = alloca ptr, align 8
  %12 = alloca i32, align 4
  %13 = alloca ptr, align 8
  store ptr %0, ptr %10, align 8
  store ptr %1, ptr %11, align 8
  store i32 0, ptr %12, align 4
  %14 = load ptr, ptr %10, align 8
  %15 = getelementptr inbounds %struct._zend_string, ptr %14, i32 0, i32 3
  %16 = getelementptr inbounds [1 x i8], ptr %15, i64 0, i64 0
  %17 = load ptr, ptr %10, align 8
  %18 = getelementptr inbounds %struct._zend_string, ptr %17, i32 0, i32 2
  %19 = load i64, ptr %18, align 8
  %20 = trunc i64 %19 to i32
  %21 = load ptr, ptr %11, align 8
  %22 = getelementptr inbounds %struct._zend_string, ptr %21, i32 0, i32 3
  %23 = getelementptr inbounds [1 x i8], ptr %22, i64 0, i64 0
  %24 = load ptr, ptr %11, align 8
  %25 = getelementptr inbounds %struct._zend_string, ptr %24, i32 0, i32 2
  %26 = load i64, ptr %25, align 8
  %27 = trunc i64 %26 to i32
  %28 = call ptr @php_crypt(ptr noundef %16, i32 noundef %20, ptr noundef %23, i32 noundef %27, i1 noundef zeroext true)
  store ptr %28, ptr %13, align 8
  %29 = load ptr, ptr %13, align 8
  %30 = icmp ne ptr %29, null
  br i1 %30, label %32, label %31

31:                                               ; preds = %2
  store i1 false, ptr %9, align 1
  br label %88

32:                                               ; preds = %2
  %33 = load ptr, ptr %11, align 8
  %34 = getelementptr inbounds %struct._zend_string, ptr %33, i32 0, i32 2
  %35 = load i64, ptr %34, align 8
  %36 = icmp ult i64 %35, 13
  br i1 %36, label %37, label %60

37:                                               ; preds = %32
  %38 = load ptr, ptr %13, align 8
  store ptr %38, ptr %7, align 8
  %39 = load ptr, ptr %7, align 8
  %40 = getelementptr inbounds %struct._zend_refcounted_h, ptr %39, i32 0, i32 1
  %41 = load i32, ptr %40, align 4
  store i32 %41, ptr %5, align 4
  %42 = load i32, ptr %5, align 4
  %43 = and i32 %42, 1008
  %44 = and i32 %43, 64
  %45 = icmp ne i32 %44, 0
  br i1 %45, label %59, label %46

46:                                               ; preds = %37
  %47 = load ptr, ptr %7, align 8
  %48 = getelementptr inbounds %struct._zend_refcounted_h, ptr %47, i32 0, i32 1
  %49 = load i32, ptr %48, align 4
  store i32 %49, ptr %6, align 4
  %50 = load i32, ptr %6, align 4
  %51 = and i32 %50, 1008
  %52 = and i32 %51, 128
  %53 = icmp ne i32 %52, 0
  br i1 %53, label %54, label %56

54:                                               ; preds = %46
  %55 = load ptr, ptr %7, align 8
  call void @free(ptr noundef %55) #9
  br label %58

56:                                               ; preds = %46
  %57 = load ptr, ptr %7, align 8
  call void @_efree(ptr noundef %57) #9
  br label %58

58:                                               ; preds = %56, %54
  br label %59

59:                                               ; preds = %58, %37
  store i1 false, ptr %9, align 1
  br label %88

60:                                               ; preds = %32
  %61 = load ptr, ptr %13, align 8
  %62 = load ptr, ptr %11, align 8
  %63 = call i32 @php_safe_bcmp(ptr noundef %61, ptr noundef %62)
  store i32 %63, ptr %12, align 4
  %64 = load ptr, ptr %13, align 8
  store ptr %64, ptr %8, align 8
  %65 = load ptr, ptr %8, align 8
  %66 = getelementptr inbounds %struct._zend_refcounted_h, ptr %65, i32 0, i32 1
  %67 = load i32, ptr %66, align 4
  store i32 %67, ptr %3, align 4
  %68 = load i32, ptr %3, align 4
  %69 = and i32 %68, 1008
  %70 = and i32 %69, 64
  %71 = icmp ne i32 %70, 0
  br i1 %71, label %85, label %72

72:                                               ; preds = %60
  %73 = load ptr, ptr %8, align 8
  %74 = getelementptr inbounds %struct._zend_refcounted_h, ptr %73, i32 0, i32 1
  %75 = load i32, ptr %74, align 4
  store i32 %75, ptr %4, align 4
  %76 = load i32, ptr %4, align 4
  %77 = and i32 %76, 1008
  %78 = and i32 %77, 128
  %79 = icmp ne i32 %78, 0
  br i1 %79, label %80, label %82

80:                                               ; preds = %72
  %81 = load ptr, ptr %8, align 8
  call void @free(ptr noundef %81) #9
  br label %84

82:                                               ; preds = %72
  %83 = load ptr, ptr %8, align 8
  call void @_efree(ptr noundef %83) #9
  br label %84

84:                                               ; preds = %82, %80
  br label %85

85:                                               ; preds = %84, %60
  %86 = load i32, ptr %12, align 4
  %87 = icmp eq i32 %86, 0
  store i1 %87, ptr %9, align 1
  br label %88

88:                                               ; preds = %85, %59, %31
  %89 = load i1, ptr %9, align 1
  ret i1 %89
}