; Function Attrs: nounwind uwtable
define internal zeroext i1 @php_password_bcrypt_verify(ptr noundef %0, ptr noundef %1) #0 {
  %3 = getelementptr inbounds i8, ptr %0, i64 24
  %4 = getelementptr inbounds i8, ptr %0, i64 16
  %5 = load i64, ptr %4, align 8
  %6 = trunc i64 %5 to i32
  %7 = getelementptr inbounds i8, ptr %1, i64 24
  %8 = getelementptr inbounds i8, ptr %1, i64 16
  %9 = load i64, ptr %8, align 8
  %10 = trunc i64 %9 to i32
  %11 = tail call ptr @php_crypt(ptr noundef nonnull %3, i32 noundef %6, ptr noundef nonnull %7, i32 noundef %10, i1 noundef zeroext true) #12
  %.not = icmp eq ptr %11, null
  br i1 %.not, label %34, label %12

12:                                               ; preds = %2
  %13 = load i64, ptr %8, align 8
  %14 = icmp ult i64 %13, 13
  br i1 %14, label %15, label %23

15:                                               ; preds = %12
  %16 = getelementptr inbounds i8, ptr %11, i64 4
  %17 = load i32, ptr %16, align 4
  %18 = and i32 %17, 64
  %.not26 = icmp eq i32 %18, 0
  br i1 %.not26, label %19, label %34

19:                                               ; preds = %15
  %20 = and i32 %17, 128
  %.not27 = icmp eq i32 %20, 0
  br i1 %.not27, label %22, label %21

21:                                               ; preds = %19
  tail call void @free(ptr noundef nonnull %11) #12
  br label %34

22:                                               ; preds = %19
  tail call void @_efree(ptr noundef nonnull %11) #12
  br label %34

23:                                               ; preds = %12
  %24 = tail call i32 @php_safe_bcmp(ptr noundef nonnull %11, ptr noundef nonnull %1) #12
  %25 = getelementptr inbounds i8, ptr %11, i64 4
  %26 = load i32, ptr %25, align 4
  %27 = and i32 %26, 64
  %.not24 = icmp eq i32 %27, 0
  br i1 %.not24, label %28, label %32

28:                                               ; preds = %23
  %29 = and i32 %26, 128
  %.not25 = icmp eq i32 %29, 0
  br i1 %.not25, label %31, label %30

30:                                               ; preds = %28
  tail call void @free(ptr noundef nonnull %11) #12
  br label %32

31:                                               ; preds = %28
  tail call void @_efree(ptr noundef nonnull %11) #12
  br label %32

32:                                               ; preds = %30, %31, %23
  %33 = icmp eq i32 %24, 0
  br label %34

34:                                               ; preds = %15, %22, %21, %2, %32
  %.0 = phi i1 [ %33, %32 ], [ false, %2 ], [ false, %21 ], [ false, %22 ], [ false, %15 ]
  ret i1 %.0
}